
Allocating common symbols
Common symbol       size              file

SaveRState          0x2               ..\obj\usb_int.o
SaveState           0x2               ..\obj\usb_init.o
ProtocolValue       0x4               ..\obj\usb_prop.o
wIstr               0x2               ..\obj\usb_istr.o
pProperty           0x4               ..\obj\usb_init.o
EPindex             0x1               ..\obj\usb_init.o
Report_Buf          0x40              ..\obj\usb_prop.o
btn1_prev           0x2               ..\obj\hw_config.o
SaveTState          0x2               ..\obj\usb_int.o
Device_Info         0x1c              ..\obj\usb_init.o
pUser_Standard_Requests
                    0x4               ..\obj\usb_init.o
Receive_Buffer      0x40              ..\obj\usb_endp.o
EXTI_Enable         0x1               ..\obj\usb_prop.o
StatusInfo          0x2               ..\obj\usb_core.o
pInformation        0x4               ..\obj\usb_init.o
ResumeS             0x2               ..\obj\usb_pwr.o
buttons             0x1               ..\obj\main.o
Buffer              0x46              ..\obj\hw_config.o
btn2_prev           0x2               ..\obj\hw_config.o
wInterrupt_Mask     0x2               ..\obj\usb_init.o

Discarded input sections

 .text          0x00000000        0x0 ..\obj\usb_core.o
 .data          0x00000000        0x0 ..\obj\usb_core.o
 .text          0x00000000        0x0 ..\obj\stm32f10x_tim.o
 .data          0x00000000        0x0 ..\obj\stm32f10x_tim.o
 .bss           0x00000000        0x0 ..\obj\stm32f10x_tim.o
 .text.TIM_DeInit
                0x00000000      0x22c ..\obj\stm32f10x_tim.o
 .text.TIM_TimeBaseInit
                0x00000000       0xf8 ..\obj\stm32f10x_tim.o
 .text.TIM_OC1Init
                0x00000000      0x118 ..\obj\stm32f10x_tim.o
 .text.TIM_OC2Init
                0x00000000      0x110 ..\obj\stm32f10x_tim.o
 .text.TIM_OC3Init
                0x00000000      0x10c ..\obj\stm32f10x_tim.o
 .text.TIM_OC4Init
                0x00000000       0xd0 ..\obj\stm32f10x_tim.o
 .text.TIM_ICInit
                0x00000000       0xa8 ..\obj\stm32f10x_tim.o
 .text.TIM_PWMIConfig
                0x00000000       0xb8 ..\obj\stm32f10x_tim.o
 .text.TIM_BDTRConfig
                0x00000000       0x50 ..\obj\stm32f10x_tim.o
 .text.TIM_TimeBaseStructInit
                0x00000000       0x34 ..\obj\stm32f10x_tim.o
 .text.TIM_OCStructInit
                0x00000000       0x44 ..\obj\stm32f10x_tim.o
 .text.TIM_ICStructInit
                0x00000000       0x30 ..\obj\stm32f10x_tim.o
 .text.TIM_BDTRStructInit
                0x00000000       0x3c ..\obj\stm32f10x_tim.o
 .text.TIM_Cmd  0x00000000       0x40 ..\obj\stm32f10x_tim.o
 .text.TIM_CtrlPWMOutputs
                0x00000000       0x4c ..\obj\stm32f10x_tim.o
 .text.TIM_ITConfig
                0x00000000       0x48 ..\obj\stm32f10x_tim.o
 .text.TIM_GenerateEvent
                0x00000000       0x1c ..\obj\stm32f10x_tim.o
 .text.TIM_DMAConfig
                0x00000000       0x28 ..\obj\stm32f10x_tim.o
 .text.TIM_DMACmd
                0x00000000       0x48 ..\obj\stm32f10x_tim.o
 .text.TIM_InternalClockConfig
                0x00000000       0x24 ..\obj\stm32f10x_tim.o
 .text.TIM_ITRxExternalClockConfig
                0x00000000       0x2c ..\obj\stm32f10x_tim.o
 .text.TIM_TIxExternalClockConfig
                0x00000000       0x60 ..\obj\stm32f10x_tim.o
 .text.TIM_ETRClockMode1Config
                0x00000000       0x5c ..\obj\stm32f10x_tim.o
 .text.TIM_ETRClockMode2Config
                0x00000000       0x3c ..\obj\stm32f10x_tim.o
 .text.TIM_ETRConfig
                0x00000000       0x54 ..\obj\stm32f10x_tim.o
 .text.TIM_PrescalerConfig
                0x00000000       0x28 ..\obj\stm32f10x_tim.o
 .text.TIM_CounterModeConfig
                0x00000000       0x38 ..\obj\stm32f10x_tim.o
 .text.TIM_SelectInputTrigger
                0x00000000       0x38 ..\obj\stm32f10x_tim.o
 .text.TIM_EncoderInterfaceConfig
                0x00000000       0x98 ..\obj\stm32f10x_tim.o
 .text.TIM_ForcedOC1Config
                0x00000000       0x38 ..\obj\stm32f10x_tim.o
 .text.TIM_ForcedOC2Config
                0x00000000       0x3c ..\obj\stm32f10x_tim.o
 .text.TIM_ForcedOC3Config
                0x00000000       0x38 ..\obj\stm32f10x_tim.o
 .text.TIM_ForcedOC4Config
                0x00000000       0x3c ..\obj\stm32f10x_tim.o
 .text.TIM_ARRPreloadConfig
                0x00000000       0x40 ..\obj\stm32f10x_tim.o
 .text.TIM_SelectCOM
                0x00000000       0x40 ..\obj\stm32f10x_tim.o
 .text.TIM_SelectCCDMA
                0x00000000       0x40 ..\obj\stm32f10x_tim.o
 .text.TIM_CCPreloadControl
                0x00000000       0x40 ..\obj\stm32f10x_tim.o
 .text.TIM_OC1PreloadConfig
                0x00000000       0x38 ..\obj\stm32f10x_tim.o
 .text.TIM_OC2PreloadConfig
                0x00000000       0x3c ..\obj\stm32f10x_tim.o
 .text.TIM_OC3PreloadConfig
                0x00000000       0x38 ..\obj\stm32f10x_tim.o
 .text.TIM_OC4PreloadConfig
                0x00000000       0x3c ..\obj\stm32f10x_tim.o
 .text.TIM_OC1FastConfig
                0x00000000       0x38 ..\obj\stm32f10x_tim.o
 .text.TIM_OC2FastConfig
                0x00000000       0x3c ..\obj\stm32f10x_tim.o
 .text.TIM_OC3FastConfig
                0x00000000       0x38 ..\obj\stm32f10x_tim.o
 .text.TIM_OC4FastConfig
                0x00000000       0x3c ..\obj\stm32f10x_tim.o
 .text.TIM_ClearOC1Ref
                0x00000000       0x38 ..\obj\stm32f10x_tim.o
 .text.TIM_ClearOC2Ref
                0x00000000       0x3c ..\obj\stm32f10x_tim.o
 .text.TIM_ClearOC3Ref
                0x00000000       0x38 ..\obj\stm32f10x_tim.o
 .text.TIM_ClearOC4Ref
                0x00000000       0x3c ..\obj\stm32f10x_tim.o
 .text.TIM_OC1PolarityConfig
                0x00000000       0x38 ..\obj\stm32f10x_tim.o
 .text.TIM_OC1NPolarityConfig
                0x00000000       0x38 ..\obj\stm32f10x_tim.o
 .text.TIM_OC2PolarityConfig
                0x00000000       0x3c ..\obj\stm32f10x_tim.o
 .text.TIM_OC2NPolarityConfig
                0x00000000       0x3c ..\obj\stm32f10x_tim.o
 .text.TIM_OC3PolarityConfig
                0x00000000       0x3c ..\obj\stm32f10x_tim.o
 .text.TIM_OC3NPolarityConfig
                0x00000000       0x3c ..\obj\stm32f10x_tim.o
 .text.TIM_OC4PolarityConfig
                0x00000000       0x3c ..\obj\stm32f10x_tim.o
 .text.TIM_CCxCmd
                0x00000000       0x54 ..\obj\stm32f10x_tim.o
 .text.TIM_CCxNCmd
                0x00000000       0x54 ..\obj\stm32f10x_tim.o
 .text.TIM_SelectOCxM
                0x00000000       0xac ..\obj\stm32f10x_tim.o
 .text.TIM_UpdateDisableConfig
                0x00000000       0x40 ..\obj\stm32f10x_tim.o
 .text.TIM_UpdateRequestConfig
                0x00000000       0x40 ..\obj\stm32f10x_tim.o
 .text.TIM_SelectHallSensor
                0x00000000       0x40 ..\obj\stm32f10x_tim.o
 .text.TIM_SelectOnePulseMode
                0x00000000       0x38 ..\obj\stm32f10x_tim.o
 .text.TIM_SelectOutputTrigger
                0x00000000       0x38 ..\obj\stm32f10x_tim.o
 .text.TIM_SelectSlaveMode
                0x00000000       0x38 ..\obj\stm32f10x_tim.o
 .text.TIM_SelectMasterSlaveMode
                0x00000000       0x38 ..\obj\stm32f10x_tim.o
 .text.TIM_SetCounter
                0x00000000       0x1c ..\obj\stm32f10x_tim.o
 .text.TIM_SetAutoreload
                0x00000000       0x1c ..\obj\stm32f10x_tim.o
 .text.TIM_SetCompare1
                0x00000000       0x1c ..\obj\stm32f10x_tim.o
 .text.TIM_SetCompare2
                0x00000000       0x1c ..\obj\stm32f10x_tim.o
 .text.TIM_SetCompare3
                0x00000000       0x1c ..\obj\stm32f10x_tim.o
 .text.TIM_SetCompare4
                0x00000000       0x20 ..\obj\stm32f10x_tim.o
 .text.TIM_SetIC1Prescaler
                0x00000000       0x38 ..\obj\stm32f10x_tim.o
 .text.TIM_SetIC2Prescaler
                0x00000000       0x3c ..\obj\stm32f10x_tim.o
 .text.TIM_SetIC3Prescaler
                0x00000000       0x38 ..\obj\stm32f10x_tim.o
 .text.TIM_SetIC4Prescaler
                0x00000000       0x3c ..\obj\stm32f10x_tim.o
 .text.TIM_SetClockDivision
                0x00000000       0x38 ..\obj\stm32f10x_tim.o
 .text.TIM_GetCapture1
                0x00000000       0x1c ..\obj\stm32f10x_tim.o
 .text.TIM_GetCapture2
                0x00000000       0x1c ..\obj\stm32f10x_tim.o
 .text.TIM_GetCapture3
                0x00000000       0x1c ..\obj\stm32f10x_tim.o
 .text.TIM_GetCapture4
                0x00000000       0x1c ..\obj\stm32f10x_tim.o
 .text.TIM_GetCounter
                0x00000000       0x1c ..\obj\stm32f10x_tim.o
 .text.TIM_GetPrescaler
                0x00000000       0x1c ..\obj\stm32f10x_tim.o
 .text.TIM_GetFlagStatus
                0x00000000       0x38 ..\obj\stm32f10x_tim.o
 .text.TIM_ClearFlag
                0x00000000       0x20 ..\obj\stm32f10x_tim.o
 .text.TI1_Config
                0x00000000       0xe0 ..\obj\stm32f10x_tim.o
 .text.TI2_Config
                0x00000000       0xf4 ..\obj\stm32f10x_tim.o
 .text.TI3_Config
                0x00000000       0xec ..\obj\stm32f10x_tim.o
 .text.TI4_Config
                0x00000000       0xf8 ..\obj\stm32f10x_tim.o
 .text          0x00000000        0x0 ..\obj\usb_int.o
 .data          0x00000000        0x0 ..\obj\usb_int.o
 .bss           0x00000000        0x0 ..\obj\usb_int.o
 .text.CTR_HP   0x00000000       0xf0 ..\obj\usb_int.o
 .text          0x00000000        0x0 ..\obj\system_stm32f10x.o
 .data          0x00000000       0x14 ..\obj\system_stm32f10x.o
 .bss           0x00000000        0x0 ..\obj\system_stm32f10x.o
 .text.SystemCoreClockUpdate
                0x00000000       0xdc ..\obj\system_stm32f10x.o
 .text          0x00000000        0x0 ..\obj\startup_stm32f10x_hd.o
 .data          0x00000000        0x0 ..\obj\startup_stm32f10x_hd.o
 .bss           0x00000000        0x0 ..\obj\startup_stm32f10x_hd.o
 .text          0x00000000        0x0 ..\obj\usb_desc.o
 .bss           0x00000000        0x0 ..\obj\usb_desc.o
 .text          0x00000000        0x0 ..\obj\usb_regs.o
 .data          0x00000000        0x0 ..\obj\usb_regs.o
 .bss           0x00000000        0x0 ..\obj\usb_regs.o
 .text.SetCNTR  0x00000000       0x20 ..\obj\usb_regs.o
 .text.GetCNTR  0x00000000       0x18 ..\obj\usb_regs.o
 .text.SetISTR  0x00000000       0x20 ..\obj\usb_regs.o
 .text.GetISTR  0x00000000       0x18 ..\obj\usb_regs.o
 .text.GetFNR   0x00000000       0x18 ..\obj\usb_regs.o
 .text.SetDADDR
                0x00000000       0x20 ..\obj\usb_regs.o
 .text.GetDADDR
                0x00000000       0x18 ..\obj\usb_regs.o
 .text.GetBTABLE
                0x00000000       0x18 ..\obj\usb_regs.o
 .text.SetENDPOINT
                0x00000000       0x2c ..\obj\usb_regs.o
 .text.GetENDPOINT
                0x00000000       0x28 ..\obj\usb_regs.o
 .text.GetEPType
                0x00000000       0x2c ..\obj\usb_regs.o
 .text.SetDouBleBuffEPStall
                0x00000000       0x58 ..\obj\usb_regs.o
 .text.GetEPTxStatus
                0x00000000       0x2c ..\obj\usb_regs.o
 .text.GetEPRxStatus
                0x00000000       0x2c ..\obj\usb_regs.o
 .text.SetEPTxValid
                0x00000000       0x50 ..\obj\usb_regs.o
 .text.SetEP_KIND
                0x00000000       0x50 ..\obj\usb_regs.o
 .text.ClearEP_KIND
                0x00000000       0x50 ..\obj\usb_regs.o
 .text.Set_Status_Out
                0x00000000       0x50 ..\obj\usb_regs.o
 .text.SetEPDoubleBuff
                0x00000000       0x50 ..\obj\usb_regs.o
 .text.ClearEPDoubleBuff
                0x00000000       0x50 ..\obj\usb_regs.o
 .text.GetTxStallStatus
                0x00000000       0x38 ..\obj\usb_regs.o
 .text.GetRxStallStatus
                0x00000000       0x38 ..\obj\usb_regs.o
 .text.ClearEP_CTR_RX
                0x00000000       0x3c ..\obj\usb_regs.o
 .text.ClearEP_CTR_TX
                0x00000000       0x3c ..\obj\usb_regs.o
 .text.ToggleDTOG_RX
                0x00000000       0x44 ..\obj\usb_regs.o
 .text.ToggleDTOG_TX
                0x00000000       0x44 ..\obj\usb_regs.o
 .text.SetEPAddress
                0x00000000       0x4c ..\obj\usb_regs.o
 .text.GetEPAddress
                0x00000000       0x2c ..\obj\usb_regs.o
 .text.SetEPCountRxReg
                0x00000000       0x64 ..\obj\usb_regs.o
 .text.GetEPTxCount
                0x00000000       0x3c ..\obj\usb_regs.o
 .text.SetEPDblBuffAddr
                0x00000000       0x68 ..\obj\usb_regs.o
 .text.SetEPDblBuf0Addr
                0x00000000       0x44 ..\obj\usb_regs.o
 .text.SetEPDblBuf1Addr
                0x00000000       0x44 ..\obj\usb_regs.o
 .text.GetEPDblBuf0Addr
                0x00000000       0x38 ..\obj\usb_regs.o
 .text.GetEPDblBuf1Addr
                0x00000000       0x38 ..\obj\usb_regs.o
 .text.SetEPDblBuffCount
                0x00000000      0x13c ..\obj\usb_regs.o
 .text.SetEPDblBuf0Count
                0x00000000       0xb0 ..\obj\usb_regs.o
 .text.SetEPDblBuf1Count
                0x00000000       0xb0 ..\obj\usb_regs.o
 .text.GetEPDblBuf0Count
                0x00000000       0x3c ..\obj\usb_regs.o
 .text.GetEPDblBuf1Count
                0x00000000       0x3c ..\obj\usb_regs.o
 .text.GetEPDblBufDir
                0x00000000       0x6c ..\obj\usb_regs.o
 .text.FreeUserBuffer
                0x00000000       0x84 ..\obj\usb_regs.o
 .text.ToWord   0x00000000       0x30 ..\obj\usb_regs.o
 .text          0x00000000        0x0 ..\obj\stm32f10x_pwr.o
 .data          0x00000000        0x0 ..\obj\stm32f10x_pwr.o
 .bss           0x00000000        0x0 ..\obj\stm32f10x_pwr.o
 .text.PWR_DeInit
                0x00000000       0x1c ..\obj\stm32f10x_pwr.o
 .text.PWR_BackupAccessCmd
                0x00000000       0x20 ..\obj\stm32f10x_pwr.o
 .text.PWR_PVDCmd
                0x00000000       0x20 ..\obj\stm32f10x_pwr.o
 .text.PWR_PVDLevelConfig
                0x00000000       0x38 ..\obj\stm32f10x_pwr.o
 .text.PWR_WakeUpPinCmd
                0x00000000       0x20 ..\obj\stm32f10x_pwr.o
 .text.PWR_EnterSTOPMode
                0x00000000       0x64 ..\obj\stm32f10x_pwr.o
 .text.PWR_EnterSTANDBYMode
                0x00000000       0x3c ..\obj\stm32f10x_pwr.o
 .text.PWR_GetFlagStatus
                0x00000000       0x34 ..\obj\stm32f10x_pwr.o
 .text.PWR_ClearFlag
                0x00000000       0x24 ..\obj\stm32f10x_pwr.o
 .debug_info    0x00000000      0x482 ..\obj\stm32f10x_pwr.o
 .debug_abbrev  0x00000000      0x17f ..\obj\stm32f10x_pwr.o
 .debug_aranges
                0x00000000       0x60 ..\obj\stm32f10x_pwr.o
 .debug_ranges  0x00000000       0x50 ..\obj\stm32f10x_pwr.o
 .debug_line    0x00000000      0x26c ..\obj\stm32f10x_pwr.o
 .debug_str     0x00000000      0x332 ..\obj\stm32f10x_pwr.o
 .comment       0x00000000       0x71 ..\obj\stm32f10x_pwr.o
 .debug_frame   0x00000000      0x164 ..\obj\stm32f10x_pwr.o
 .ARM.attributes
                0x00000000       0x33 ..\obj\stm32f10x_pwr.o
 .text          0x00000000        0x0 ..\obj\hw_config.o
 .data          0x00000000        0x1 ..\obj\hw_config.o
 .bss           0x00000000        0x0 ..\obj\hw_config.o
 .text.CUBECheckState
                0x00000000       0xd4 ..\obj\hw_config.o
 .text.CUBECheckState2
                0x00000000       0x60 ..\obj\hw_config.o
 COMMON         0x00000000       0x4c ..\obj\hw_config.o
 .text          0x00000000        0x0 ..\obj\stm32f10x_gpio.o
 .data          0x00000000        0x0 ..\obj\stm32f10x_gpio.o
 .bss           0x00000000        0x0 ..\obj\stm32f10x_gpio.o
 .text.GPIO_DeInit
                0x00000000       0xe4 ..\obj\stm32f10x_gpio.o
 .text.GPIO_AFIODeInit
                0x00000000       0x18 ..\obj\stm32f10x_gpio.o
 .text.GPIO_Init
                0x00000000      0x180 ..\obj\stm32f10x_gpio.o
 .text.GPIO_StructInit
                0x00000000       0x28 ..\obj\stm32f10x_gpio.o
 .text.GPIO_ReadInputDataBit
                0x00000000       0x34 ..\obj\stm32f10x_gpio.o
 .text.GPIO_ReadInputData
                0x00000000       0x1c ..\obj\stm32f10x_gpio.o
 .text.GPIO_ReadOutputDataBit
                0x00000000       0x34 ..\obj\stm32f10x_gpio.o
 .text.GPIO_ReadOutputData
                0x00000000       0x1c ..\obj\stm32f10x_gpio.o
 .text.GPIO_SetBits
                0x00000000       0x1c ..\obj\stm32f10x_gpio.o
 .text.GPIO_ResetBits
                0x00000000       0x1c ..\obj\stm32f10x_gpio.o
 .text.GPIO_WriteBit
                0x00000000       0x30 ..\obj\stm32f10x_gpio.o
 .text.GPIO_Write
                0x00000000       0x1c ..\obj\stm32f10x_gpio.o
 .text.GPIO_PinLockConfig
                0x00000000       0x44 ..\obj\stm32f10x_gpio.o
 .text.GPIO_EventOutputConfig
                0x00000000       0x4c ..\obj\stm32f10x_gpio.o
 .text.GPIO_EventOutputCmd
                0x00000000       0x20 ..\obj\stm32f10x_gpio.o
 .text.GPIO_PinRemapConfig
                0x00000000       0xe0 ..\obj\stm32f10x_gpio.o
 .text.GPIO_EXTILineConfig
                0x00000000       0x84 ..\obj\stm32f10x_gpio.o
 .text.GPIO_ETH_MediaInterfaceConfig
                0x00000000       0x1c ..\obj\stm32f10x_gpio.o
 .debug_info    0x00000000      0x6e7 ..\obj\stm32f10x_gpio.o
 .debug_abbrev  0x00000000      0x1c8 ..\obj\stm32f10x_gpio.o
 .debug_aranges
                0x00000000       0xa8 ..\obj\stm32f10x_gpio.o
 .debug_ranges  0x00000000       0x98 ..\obj\stm32f10x_gpio.o
 .debug_line    0x00000000      0x39c ..\obj\stm32f10x_gpio.o
 .debug_str     0x00000000      0x529 ..\obj\stm32f10x_gpio.o
 .comment       0x00000000       0x71 ..\obj\stm32f10x_gpio.o
 .debug_frame   0x00000000      0x2d0 ..\obj\stm32f10x_gpio.o
 .ARM.attributes
                0x00000000       0x33 ..\obj\stm32f10x_gpio.o
 .text          0x00000000        0x0 ..\obj\usb_prop.o
 .text          0x00000000        0x0 ..\obj\usb_pwr.o
 .text.PowerOff
                0x00000000       0x2c ..\obj\usb_pwr.o
 .text          0x00000000        0x0 ..\obj\usb_init.o
 .data          0x00000000        0x0 ..\obj\usb_init.o
 .bss           0x00000000        0x0 ..\obj\usb_init.o
 .text          0x00000000        0x0 ..\obj\main.o
 .data          0x00000000        0x0 ..\obj\main.o
 .text.__delay_ms
                0x00000000       0x28 ..\obj\main.o
 COMMON         0x00000000        0x1 ..\obj\main.o
 .text          0x00000000        0x0 ..\obj\stm32f10x_rcc.o
 .data          0x00000000       0x14 ..\obj\stm32f10x_rcc.o
 .bss           0x00000000        0x0 ..\obj\stm32f10x_rcc.o
 .text.RCC_AdjustHSICalibrationValue
                0x00000000       0x3c ..\obj\stm32f10x_rcc.o
 .text.RCC_HSICmd
                0x00000000       0x20 ..\obj\stm32f10x_rcc.o
 .text.RCC_ITConfig
                0x00000000       0x4c ..\obj\stm32f10x_rcc.o
 .text.RCC_LSEConfig
                0x00000000       0x40 ..\obj\stm32f10x_rcc.o
 .text.RCC_LSICmd
                0x00000000       0x20 ..\obj\stm32f10x_rcc.o
 .text.RCC_RTCCLKConfig
                0x00000000       0x24 ..\obj\stm32f10x_rcc.o
 .text.RCC_RTCCLKCmd
                0x00000000       0x20 ..\obj\stm32f10x_rcc.o
 .text.RCC_GetClocksFreq
                0x00000000      0x164 ..\obj\stm32f10x_rcc.o
 .text.RCC_AHBPeriphClockCmd
                0x00000000       0x3c ..\obj\stm32f10x_rcc.o
 .text.RCC_APB2PeriphResetCmd
                0x00000000       0x3c ..\obj\stm32f10x_rcc.o
 .text.RCC_APB1PeriphResetCmd
                0x00000000       0x3c ..\obj\stm32f10x_rcc.o
 .text.RCC_BackupResetCmd
                0x00000000       0x20 ..\obj\stm32f10x_rcc.o
 .text.RCC_ClockSecuritySystemCmd
                0x00000000       0x20 ..\obj\stm32f10x_rcc.o
 .text.RCC_MCOConfig
                0x00000000       0x20 ..\obj\stm32f10x_rcc.o
 .text.RCC_ClearFlag
                0x00000000       0x1c ..\obj\stm32f10x_rcc.o
 .text.RCC_GetITStatus
                0x00000000       0x38 ..\obj\stm32f10x_rcc.o
 .text.RCC_ClearITPendingBit
                0x00000000       0x20 ..\obj\stm32f10x_rcc.o
 .text          0x00000000        0x0 ..\obj\stm32f10x_exti.o
 .data          0x00000000        0x0 ..\obj\stm32f10x_exti.o
 .bss           0x00000000        0x0 ..\obj\stm32f10x_exti.o
 .text.EXTI_DeInit
                0x00000000       0x34 ..\obj\stm32f10x_exti.o
 .text.EXTI_Init
                0x00000000       0xe4 ..\obj\stm32f10x_exti.o
 .text.EXTI_StructInit
                0x00000000       0x2c ..\obj\stm32f10x_exti.o
 .text.EXTI_GenerateSWInterrupt
                0x00000000       0x24 ..\obj\stm32f10x_exti.o
 .text.EXTI_GetFlagStatus
                0x00000000       0x34 ..\obj\stm32f10x_exti.o
 .text.EXTI_ClearFlag
                0x00000000       0x1c ..\obj\stm32f10x_exti.o
 .text.EXTI_GetITStatus
                0x00000000       0x48 ..\obj\stm32f10x_exti.o
 .text.EXTI_ClearITPendingBit
                0x00000000       0x1c ..\obj\stm32f10x_exti.o
 .debug_info    0x00000000      0x341 ..\obj\stm32f10x_exti.o
 .debug_abbrev  0x00000000      0x151 ..\obj\stm32f10x_exti.o
 .debug_aranges
                0x00000000       0x58 ..\obj\stm32f10x_exti.o
 .debug_ranges  0x00000000       0x48 ..\obj\stm32f10x_exti.o
 .debug_line    0x00000000      0x28a ..\obj\stm32f10x_exti.o
 .debug_str     0x00000000      0x359 ..\obj\stm32f10x_exti.o
 .comment       0x00000000       0x71 ..\obj\stm32f10x_exti.o
 .debug_frame   0x00000000      0x148 ..\obj\stm32f10x_exti.o
 .ARM.attributes
                0x00000000       0x33 ..\obj\stm32f10x_exti.o
 .text          0x00000000        0x0 ..\obj\usb_sil.o
 .data          0x00000000        0x0 ..\obj\usb_sil.o
 .bss           0x00000000        0x0 ..\obj\usb_sil.o
 .text.USB_SIL_Write
                0x00000000       0x4c ..\obj\usb_sil.o
 .text          0x00000000        0x0 ..\obj\stm32f10x_flash.o
 .data          0x00000000        0x0 ..\obj\stm32f10x_flash.o
 .bss           0x00000000        0x0 ..\obj\stm32f10x_flash.o
 .text.FLASH_HalfCycleAccessCmd
                0x00000000       0x30 ..\obj\stm32f10x_flash.o
 .text.FLASH_Unlock
                0x00000000       0x24 ..\obj\stm32f10x_flash.o
 .text.FLASH_UnlockBank1
                0x00000000       0x24 ..\obj\stm32f10x_flash.o
 .text.FLASH_Lock
                0x00000000       0x1c ..\obj\stm32f10x_flash.o
 .text.FLASH_LockBank1
                0x00000000       0x1c ..\obj\stm32f10x_flash.o
 .text.FLASH_ErasePage
                0x00000000       0x64 ..\obj\stm32f10x_flash.o
 .text.FLASH_EraseAllPages
                0x00000000       0x5c ..\obj\stm32f10x_flash.o
 .text.FLASH_EraseAllBank1Pages
                0x00000000       0x5c ..\obj\stm32f10x_flash.o
 .text.FLASH_EraseOptionBytes
                0x00000000       0xd4 ..\obj\stm32f10x_flash.o
 .text.FLASH_ProgramWord
                0x00000000       0x94 ..\obj\stm32f10x_flash.o
 .text.FLASH_ProgramHalfWord
                0x00000000       0x5c ..\obj\stm32f10x_flash.o
 .text.FLASH_ProgramOptionByteData
                0x00000000       0x78 ..\obj\stm32f10x_flash.o
 .text.FLASH_EnableWriteProtection
                0x00000000      0x118 ..\obj\stm32f10x_flash.o
 .text.FLASH_ReadOutProtection
                0x00000000       0xd4 ..\obj\stm32f10x_flash.o
 .text.FLASH_UserOptionByteConfig
                0x00000000       0x94 ..\obj\stm32f10x_flash.o
 .text.FLASH_GetUserOptionByte
                0x00000000       0x18 ..\obj\stm32f10x_flash.o
 .text.FLASH_GetWriteProtectionOptionByte
                0x00000000       0x18 ..\obj\stm32f10x_flash.o
 .text.FLASH_GetReadOutProtectionStatus
                0x00000000       0x34 ..\obj\stm32f10x_flash.o
 .text.FLASH_GetPrefetchBufferStatus
                0x00000000       0x34 ..\obj\stm32f10x_flash.o
 .text.FLASH_ITConfig
                0x00000000       0x3c ..\obj\stm32f10x_flash.o
 .text.FLASH_GetFlagStatus
                0x00000000       0x54 ..\obj\stm32f10x_flash.o
 .text.FLASH_ClearFlag
                0x00000000       0x1c ..\obj\stm32f10x_flash.o
 .text.FLASH_GetStatus
                0x00000000       0x58 ..\obj\stm32f10x_flash.o
 .text.FLASH_GetBank1Status
                0x00000000       0x58 ..\obj\stm32f10x_flash.o
 .text.FLASH_WaitForLastOperation
                0x00000000       0x44 ..\obj\stm32f10x_flash.o
 .text.FLASH_WaitForLastBank1Operation
                0x00000000       0x44 ..\obj\stm32f10x_flash.o
 .text          0x00000000        0x0 ..\obj\stm32f10x_it.o
 .data          0x00000000        0x0 ..\obj\stm32f10x_it.o
 .bss           0x00000000        0x0 ..\obj\stm32f10x_it.o
 .text.EVAL_COM1_IRQHandler
                0x00000000        0xc ..\obj\stm32f10x_it.o
 .text          0x00000000        0x0 ..\obj\usb_endp.o
 .data          0x00000000        0x0 ..\obj\usb_endp.o
 .bss           0x00000000        0x0 ..\obj\usb_endp.o
 .text          0x00000000        0x0 ..\obj\misc.o
 .data          0x00000000        0x0 ..\obj\misc.o
 .bss           0x00000000        0x0 ..\obj\misc.o
 .text.NVIC_SetVectorTable
                0x00000000       0x2c ..\obj\misc.o
 .text.NVIC_SystemLPConfig
                0x00000000       0x40 ..\obj\misc.o
 .text.SysTick_CLKSourceConfig
                0x00000000       0x38 ..\obj\misc.o
 .text          0x00000000        0x0 ..\obj\usb_mem.o
 .data          0x00000000        0x0 ..\obj\usb_mem.o
 .bss           0x00000000        0x0 ..\obj\usb_mem.o
 .text          0x00000000        0x0 ..\obj\usb_istr.o

Memory Configuration

Name             Origin             Length             Attributes
rom              0x08000000         0x00040000         xr
ram              0x20000000         0x0000c000         xrw
*default*        0x00000000         0xffffffff

Linker script and memory map

                0x2000c000                _eram = 0x2000c000

.text           0x08000000     0x2d92
 *(.isr_vector)
 .isr_vector    0x08000000      0x134 ..\obj\startup_stm32f10x_hd.o
                0x08000000                g_pfnVectors
 *(.text*)
 .text.Standard_GetConfiguration
                0x08000134       0x3c ..\obj\usb_core.o
                0x08000134                Standard_GetConfiguration
 .text.Standard_SetConfiguration
                0x08000170       0x50 ..\obj\usb_core.o
                0x08000170                Standard_SetConfiguration
 .text.Standard_GetInterface
                0x080001c0       0x3c ..\obj\usb_core.o
                0x080001c0                Standard_GetInterface
 .text.Standard_SetInterface
                0x080001fc       0x8c ..\obj\usb_core.o
                0x080001fc                Standard_SetInterface
 .text.Standard_GetStatus
                0x08000288      0x138 ..\obj\usb_core.o
                0x08000288                Standard_GetStatus
 .text.Standard_ClearFeature
                0x080003c0      0x1dc ..\obj\usb_core.o
                0x080003c0                Standard_ClearFeature
 .text.Standard_SetEndPointFeature
                0x0800059c      0x118 ..\obj\usb_core.o
                0x0800059c                Standard_SetEndPointFeature
 .text.Standard_SetDeviceFeature
                0x080006b4       0x2c ..\obj\usb_core.o
                0x080006b4                Standard_SetDeviceFeature
 .text.Standard_GetDescriptorData
                0x080006e0       0x48 ..\obj\usb_core.o
                0x080006e0                Standard_GetDescriptorData
 .text.DataStageOut
                0x08000728      0x104 ..\obj\usb_core.o
 .text.DataStageIn
                0x0800082c      0x10c ..\obj\usb_core.o
 .text.NoData_Setup0
                0x08000938      0x194 ..\obj\usb_core.o
 .text.Data_Setup0
                0x08000acc      0x328 ..\obj\usb_core.o
 .text.Setup0_Process
                0x08000df4       0xd8 ..\obj\usb_core.o
                0x08000df4                Setup0_Process
 .text.In0_Process
                0x08000ecc       0x90 ..\obj\usb_core.o
                0x08000ecc                In0_Process
 .text.Out0_Process
                0x08000f5c       0x74 ..\obj\usb_core.o
                0x08000f5c                Out0_Process
 .text.Post0_Process
                0x08000fd0       0x50 ..\obj\usb_core.o
                0x08000fd0                Post0_Process
 .text.SetDeviceAddress
                0x08001020       0x7c ..\obj\usb_core.o
                0x08001020                SetDeviceAddress
 .text.NOP_Process
                0x0800109c        0xc ..\obj\usb_core.o
                0x0800109c                NOP_Process
 .text.TIM_GetITStatus
                0x080010a8       0x54 ..\obj\stm32f10x_tim.o
                0x080010a8                TIM_GetITStatus
 .text.TIM_ClearITPendingBit
                0x080010fc       0x20 ..\obj\stm32f10x_tim.o
                0x080010fc                TIM_ClearITPendingBit
 .text.CTR_LP   0x0800111c      0x308 ..\obj\usb_int.o
                0x0800111c                CTR_LP
 .text.SystemInit
                0x08001424       0x68 ..\obj\system_stm32f10x.o
                0x08001424                SystemInit
 .text.SetSysClock
                0x0800148c        0xc ..\obj\system_stm32f10x.o
 .text.SetSysClockTo72
                0x08001498      0x100 ..\obj\system_stm32f10x.o
 .text.Default_Reset_Handler
                0x08001598       0x5c ..\obj\startup_stm32f10x_hd.o
                0x08001598                Default_Reset_Handler
                0x08001598                Reset_Handler
 .text.Default_Handler
                0x080015f4        0x8 ..\obj\startup_stm32f10x_hd.o
                0x080015f4                EXTI2_IRQHandler
                0x080015f4                TIM8_TRG_COM_IRQHandler
                0x080015f4                TIM8_CC_IRQHandler
                0x080015f4                TIM1_CC_IRQHandler
                0x080015f4                TIM6_IRQHandler
                0x080015f4                PVD_IRQHandler
                0x080015f4                SDIO_IRQHandler
                0x080015f4                EXTI3_IRQHandler
                0x080015f4                EXTI0_IRQHandler
                0x080015f4                I2C2_EV_IRQHandler
                0x080015f4                ADC1_2_IRQHandler
                0x080015f4                SPI1_IRQHandler
                0x080015f4                TAMPER_IRQHandler
                0x080015f4                TIM8_UP_IRQHandler
                0x080015f4                DMA2_Channel2_IRQHandler
                0x080015f4                DMA1_Channel4_IRQHandler
                0x080015f4                USART3_IRQHandler
                0x080015f4                RTC_IRQHandler
                0x080015f4                DMA1_Channel7_IRQHandler
                0x080015f4                CAN1_RX1_IRQHandler
                0x080015f4                UART5_IRQHandler
                0x080015f4                ADC3_IRQHandler
                0x080015f4                TIM4_IRQHandler
                0x080015f4                DMA2_Channel1_IRQHandler
                0x080015f4                I2C1_EV_IRQHandler
                0x080015f4                DMA1_Channel6_IRQHandler
                0x080015f4                UART4_IRQHandler
                0x080015f4                TIM3_IRQHandler
                0x080015f4                RCC_IRQHandler
                0x080015f4                TIM1_TRG_COM_IRQHandler
                0x080015f4                DMA1_Channel1_IRQHandler
                0x080015f4                EXTI15_10_IRQHandler
                0x080015f4                TIM7_IRQHandler
                0x080015f4                TIM5_IRQHandler
                0x080015f4                EXTI9_5_IRQHandler
                0x080015f4                SPI2_IRQHandler
                0x080015f4                DMA1_Channel5_IRQHandler
                0x080015f4                EXTI4_IRQHandler
                0x080015f4                USB_HP_CAN1_TX_IRQHandler
                0x080015f4                DMA1_Channel3_IRQHandler
                0x080015f4                FSMC_IRQHandler
                0x080015f4                TIM1_UP_IRQHandler
                0x080015f4                WWDG_IRQHandler
                0x080015f4                TIM1_BRK_IRQHandler
                0x080015f4                EXTI1_IRQHandler
                0x080015f4                RTCAlarm_IRQHandler
                0x080015f4                DMA2_Channel4_5_IRQHandler
                0x080015f4                USART2_IRQHandler
                0x080015f4                I2C2_ER_IRQHandler
                0x080015f4                DMA1_Channel2_IRQHandler
                0x080015f4                TIM8_BRK_IRQHandler
                0x080015f4                CAN1_SCE_IRQHandler
                0x080015f4                FLASH_IRQHandler
                0x080015f4                USART1_IRQHandler
                0x080015f4                SPI3_IRQHandler
                0x080015f4                I2C1_ER_IRQHandler
                0x080015f4                USBWakeUp_IRQHandler
                0x080015f4                DMA2_Channel3_IRQHandler
 .text.SetBTABLE
                0x080015fc       0x24 ..\obj\usb_regs.o
                0x080015fc                SetBTABLE
 .text.SetEPType
                0x08001620       0x4c ..\obj\usb_regs.o
                0x08001620                SetEPType
 .text.SetEPTxStatus
                0x0800166c       0x70 ..\obj\usb_regs.o
                0x0800166c                SetEPTxStatus
 .text.SetEPRxStatus
                0x080016dc       0x70 ..\obj\usb_regs.o
                0x080016dc                SetEPRxStatus
 .text.SetEPRxValid
                0x0800174c       0x50 ..\obj\usb_regs.o
                0x0800174c                SetEPRxValid
 .text.Clear_Status_Out
                0x0800179c       0x50 ..\obj\usb_regs.o
                0x0800179c                Clear_Status_Out
 .text.ClearDTOG_RX
                0x080017ec       0x5c ..\obj\usb_regs.o
                0x080017ec                ClearDTOG_RX
 .text.ClearDTOG_TX
                0x08001848       0x5c ..\obj\usb_regs.o
                0x08001848                ClearDTOG_TX
 .text.SetEPTxAddr
                0x080018a4       0x44 ..\obj\usb_regs.o
                0x080018a4                SetEPTxAddr
 .text.SetEPRxAddr
                0x080018e8       0x44 ..\obj\usb_regs.o
                0x080018e8                SetEPRxAddr
 .text.GetEPTxAddr
                0x0800192c       0x38 ..\obj\usb_regs.o
                0x0800192c                GetEPTxAddr
 .text.GetEPRxAddr
                0x08001964       0x38 ..\obj\usb_regs.o
                0x08001964                GetEPRxAddr
 .text.SetEPTxCount
                0x0800199c       0x3c ..\obj\usb_regs.o
                0x0800199c                SetEPTxCount
 .text.SetEPRxCount
                0x080019d8       0x84 ..\obj\usb_regs.o
                0x080019d8                SetEPRxCount
 .text.GetEPRxCount
                0x08001a5c       0x3c ..\obj\usb_regs.o
                0x08001a5c                GetEPRxCount
 .text.ByteSwap
                0x08001a98       0x30 ..\obj\usb_regs.o
                0x08001a98                ByteSwap
 .text.NVIC_SetPriority
                0x08001ac8       0x54 ..\obj\hw_config.o
 .text.SysTick_Config
                0x08001b1c       0x44 ..\obj\hw_config.o
 .text.Initialization
                0x08001b60       0xa4 ..\obj\hw_config.o
                0x08001b60                Initialization
 .text.Set_System
                0x08001c04        0xc ..\obj\hw_config.o
                0x08001c04                Set_System
 .text.Set_USBClock
                0x08001c10       0x18 ..\obj\hw_config.o
                0x08001c10                Set_USBClock
 .text.Enter_LowPowerMode
                0x08001c28       0x18 ..\obj\hw_config.o
                0x08001c28                Enter_LowPowerMode
 .text.Leave_LowPowerMode
                0x08001c40       0x34 ..\obj\hw_config.o
                0x08001c40                Leave_LowPowerMode
 .text.USB_Interrupts_Config
                0x08001c74       0x2c ..\obj\hw_config.o
                0x08001c74                USB_Interrupts_Config
 .text.USB_Cable_Config
                0x08001ca0       0x14 ..\obj\hw_config.o
                0x08001ca0                USB_Cable_Config
 .text.Get_SerialNum
                0x08001cb4       0x54 ..\obj\hw_config.o
                0x08001cb4                Get_SerialNum
 .text.IntToUnicode
                0x08001d08       0x7c ..\obj\hw_config.o
 .text.HID_init
                0x08001d84       0x28 ..\obj\usb_prop.o
                0x08001d84                HID_init
 .text.HID_Reset
                0x08001dac       0xc0 ..\obj\usb_prop.o
                0x08001dac                HID_Reset
 .text.HID_SetConfiguration
                0x08001e6c       0x2c ..\obj\usb_prop.o
                0x08001e6c                HID_SetConfiguration
 .text.HID_SetDeviceAddress
                0x08001e98       0x18 ..\obj\usb_prop.o
                0x08001e98                HID_SetDeviceAddress
 .text.HID_Status_In
                0x08001eb0       0x40 ..\obj\usb_prop.o
                0x08001eb0                HID_Status_In
 .text.HID_Status_Out
                0x08001ef0        0xc ..\obj\usb_prop.o
                0x08001ef0                HID_Status_Out
 .text.HID_Data_Setup
                0x08001efc       0xbc ..\obj\usb_prop.o
                0x08001efc                HID_Data_Setup
 .text.HID_SetReport_Feature
                0x08001fb8       0x34 ..\obj\usb_prop.o
                0x08001fb8                HID_SetReport_Feature
 .text.HID_NoData_Setup
                0x08001fec       0x34 ..\obj\usb_prop.o
                0x08001fec                HID_NoData_Setup
 .text.HID_GetDeviceDescriptor
                0x08002020       0x24 ..\obj\usb_prop.o
                0x08002020                HID_GetDeviceDescriptor
 .text.HID_GetConfigDescriptor
                0x08002044       0x24 ..\obj\usb_prop.o
                0x08002044                HID_GetConfigDescriptor
 .text.HID_GetStringDescriptor
                0x08002068       0x40 ..\obj\usb_prop.o
                0x08002068                HID_GetStringDescriptor
 .text.HID_GetReportDescriptor
                0x080020a8       0x24 ..\obj\usb_prop.o
                0x080020a8                HID_GetReportDescriptor
 .text.HID_GetHIDDescriptor
                0x080020cc       0x24 ..\obj\usb_prop.o
                0x080020cc                HID_GetHIDDescriptor
 .text.HID_Get_Interface_Setting
                0x080020f0       0x34 ..\obj\usb_prop.o
                0x080020f0                HID_Get_Interface_Setting
 .text.HID_SetProtocol
                0x08002124       0x2c ..\obj\usb_prop.o
                0x08002124                HID_SetProtocol
 .text.HID_GetProtocolValue
                0x08002150       0x34 ..\obj\usb_prop.o
                0x08002150                HID_GetProtocolValue
 .text.PowerOn  0x08002184       0x50 ..\obj\usb_pwr.o
                0x08002184                PowerOn
 .text.Suspend  0x080021d4       0x3c ..\obj\usb_pwr.o
                0x080021d4                Suspend
 .text.Resume_Init
                0x08002210       0x30 ..\obj\usb_pwr.o
                0x08002210                Resume_Init
 .text.Resume   0x08002240       0xf8 ..\obj\usb_pwr.o
                0x08002240                Resume
 .text.USB_Init
                0x08002338       0x40 ..\obj\usb_init.o
                0x08002338                USB_Init
 .text.SysTick_Handler
                0x08002378       0x24 ..\obj\main.o
                0x08002378                SysTick_Handler
 .text.main     0x0800239c       0x1c ..\obj\main.o
                0x0800239c                main
 .text.TIM2_IRQHandler
                0x080023b8       0x20 ..\obj\main.o
                0x080023b8                TIM2_IRQHandler
 .text.RCC_DeInit
                0x080023d8       0x5c ..\obj\stm32f10x_rcc.o
                0x080023d8                RCC_DeInit
 .text.RCC_HSEConfig
                0x08002434       0x5c ..\obj\stm32f10x_rcc.o
                0x08002434                RCC_HSEConfig
 .text.RCC_WaitForHSEStartUp
                0x08002490       0x50 ..\obj\stm32f10x_rcc.o
                0x08002490                RCC_WaitForHSEStartUp
 .text.RCC_PLLConfig
                0x080024e0       0x3c ..\obj\stm32f10x_rcc.o
                0x080024e0                RCC_PLLConfig
 .text.RCC_PLLCmd
                0x0800251c       0x20 ..\obj\stm32f10x_rcc.o
                0x0800251c                RCC_PLLCmd
 .text.RCC_SYSCLKConfig
                0x0800253c       0x38 ..\obj\stm32f10x_rcc.o
                0x0800253c                RCC_SYSCLKConfig
 .text.RCC_GetSYSCLKSource
                0x08002574       0x20 ..\obj\stm32f10x_rcc.o
                0x08002574                RCC_GetSYSCLKSource
 .text.RCC_HCLKConfig
                0x08002594       0x38 ..\obj\stm32f10x_rcc.o
                0x08002594                RCC_HCLKConfig
 .text.RCC_PCLK1Config
                0x080025cc       0x38 ..\obj\stm32f10x_rcc.o
                0x080025cc                RCC_PCLK1Config
 .text.RCC_PCLK2Config
                0x08002604       0x38 ..\obj\stm32f10x_rcc.o
                0x08002604                RCC_PCLK2Config
 .text.RCC_USBCLKConfig
                0x0800263c       0x1c ..\obj\stm32f10x_rcc.o
                0x0800263c                RCC_USBCLKConfig
 .text.RCC_ADCCLKConfig
                0x08002658       0x38 ..\obj\stm32f10x_rcc.o
                0x08002658                RCC_ADCCLKConfig
 .text.RCC_APB2PeriphClockCmd
                0x08002690       0x3c ..\obj\stm32f10x_rcc.o
                0x08002690                RCC_APB2PeriphClockCmd
 .text.RCC_APB1PeriphClockCmd
                0x080026cc       0x3c ..\obj\stm32f10x_rcc.o
                0x080026cc                RCC_APB1PeriphClockCmd
 .text.RCC_GetFlagStatus
                0x08002708       0x74 ..\obj\stm32f10x_rcc.o
                0x08002708                RCC_GetFlagStatus
 .text.USB_SIL_Init
                0x0800277c       0x34 ..\obj\usb_sil.o
                0x0800277c                USB_SIL_Init
 .text.USB_SIL_Read
                0x080027b0       0x4c ..\obj\usb_sil.o
                0x080027b0                USB_SIL_Read
 .text.FLASH_SetLatency
                0x080027fc       0x38 ..\obj\stm32f10x_flash.o
                0x080027fc                FLASH_SetLatency
 .text.FLASH_PrefetchBufferCmd
                0x08002834       0x30 ..\obj\stm32f10x_flash.o
                0x08002834                FLASH_PrefetchBufferCmd
 .text.NMI_Handler
                0x08002864        0xc ..\obj\stm32f10x_it.o
                0x08002864                NMI_Handler
 .text.HardFault_Handler
                0x08002870        0x8 ..\obj\stm32f10x_it.o
                0x08002870                HardFault_Handler
 .text.MemManage_Handler
                0x08002878        0x8 ..\obj\stm32f10x_it.o
                0x08002878                MemManage_Handler
 .text.BusFault_Handler
                0x08002880        0x8 ..\obj\stm32f10x_it.o
                0x08002880                BusFault_Handler
 .text.UsageFault_Handler
                0x08002888        0x8 ..\obj\stm32f10x_it.o
                0x08002888                UsageFault_Handler
 .text.SVC_Handler
                0x08002890        0xc ..\obj\stm32f10x_it.o
                0x08002890                SVC_Handler
 .text.DebugMon_Handler
                0x0800289c        0xc ..\obj\stm32f10x_it.o
                0x0800289c                DebugMon_Handler
 .text.PendSV_Handler
                0x080028a8        0xc ..\obj\stm32f10x_it.o
                0x080028a8                PendSV_Handler
 .text.USB_LP_CAN1_RX0_IRQHandler
                0x080028b4        0xc ..\obj\stm32f10x_it.o
                0x080028b4                USB_LP_CAN1_RX0_IRQHandler
 .text.EP1_IN_Callback
                0x080028c0        0xc ..\obj\usb_endp.o
                0x080028c0                EP1_IN_Callback
 .text.EP1_OUT_Callback
                0x080028cc       0x1c ..\obj\usb_endp.o
                0x080028cc                EP1_OUT_Callback
 .text.NVIC_PriorityGroupConfig
                0x080028e8       0x24 ..\obj\misc.o
                0x080028e8                NVIC_PriorityGroupConfig
 .text.NVIC_Init
                0x0800290c       0xc4 ..\obj\misc.o
                0x0800290c                NVIC_Init
 .text.UserToPMABufferCopy
                0x080029d0       0x74 ..\obj\usb_mem.o
                0x080029d0                UserToPMABufferCopy
 .text.PMAToUserBufferCopy
                0x08002a44       0x5c ..\obj\usb_mem.o
                0x08002a44                PMAToUserBufferCopy
 .text.USB_Istr
                0x08002aa0      0x224 ..\obj\usb_istr.o
                0x08002aa0                USB_Istr
 *(.init)
 *(.fini)
 *crtbegin.o(.ctors)
 *crtbegin?.o(.ctors)
 *(EXCLUDE_FILE(*crtend.o *crtend?.o) .ctors)
 *(SORT(.ctors.*))
 *(.ctors)
 *crtbegin.o(.dtors)
 *crtbegin?.o(.dtors)
 *(EXCLUDE_FILE(*crtend.o *crtend?.o) .dtors)
 *(SORT(.dtors.*))
 *(.dtors)
 *(.rodata*)
 .rodata        0x08002cc4       0xce ..\obj\usb_desc.o
                0x08002cc4                CUBE_DeviceDescriptor
                0x08002cd8                CUBE_ConfigDescriptor
                0x08002d04                CUBE_ReportDescriptor
                0x08002d6c                CUBE_StringLangID
                0x08002d70                CUBE_StringVendor
                0x08002d7c                CUBE_StringProduct
 *(.eh_fram e*)

.glue_7         0x08002d94        0x0
 .glue_7        0x00000000        0x0 linker stubs

.glue_7t        0x08002d94        0x0
 .glue_7t       0x00000000        0x0 linker stubs

.vfp11_veneer   0x08002d94        0x0
 .vfp11_veneer  0x00000000        0x0 linker stubs

.v4_bx          0x08002d94        0x0
 .v4_bx         0x00000000        0x0 linker stubs

.iplt           0x08002d94        0x0
 .iplt          0x00000000        0x0 ..\obj\usb_core.o

.rel.dyn        0x08002d94        0x0
 .rel.iplt      0x00000000        0x0 ..\obj\usb_core.o

.ARM.extab
 *(.ARM.extab* .gnu.linkonce.armextab.*)
                0x08002d94                __exidx_start = .

.ARM.exidx
 *(.ARM.exidx* .gnu.linkonce.armexidx.*)
                0x08002d94                __exidx_end = .
                0x08002d94                __etext = .
                0x08002d92                _sidata = __etext

.data           0x20000000       0xf0 load address 0x08002d92
                0x20000000                __data_start__ = .
                0x20000000                _sdata = __data_start__
 *(vtable)
 *(.data*)
 .data          0x20000000       0x1a ..\obj\usb_desc.o
                0x20000000                CUBE_StringSerial
 *fill*         0x2000001a        0x2 
 .data          0x2000001c       0x98 ..\obj\usb_prop.o
                0x2000001c                Device_Table
                0x20000020                Device_Property
                0x20000050                User_Standard_Requests
                0x20000074                Device_Descriptor
                0x2000007c                Config_Descriptor
                0x20000084                CUBE_Report_Descriptor
                0x2000008c                CUBE_Hid_Descriptor
                0x20000094                String_Descriptor
 .data          0x200000b4        0x1 ..\obj\usb_pwr.o
                0x200000b4                fSuspendEnabled
 *fill*         0x200000b5        0x3 
 .data          0x200000b8       0x38 ..\obj\usb_istr.o
                0x200000b8                pEpInt_IN
                0x200000d4                pEpInt_OUT
                0x200000f0                . = ALIGN (0x4)
                0x200000f0                PROVIDE (__preinit_array_start, .)
 *(.preinit_array)
                0x200000f0                PROVIDE (__preinit_array_end, .)
                0x200000f0                . = ALIGN (0x4)
                0x200000f0                PROVIDE (__init_array_start, .)
 *(SORT(.init_array.*))
 *(.init_array)
                0x200000f0                PROVIDE (__init_array_end, .)
                0x200000f0                . = ALIGN (0x4)
                0x200000f0                PROVIDE (__fini_array_start, .)
 *(SORT(.fini_array.*))
 *(.fini_array)
                0x200000f0                PROVIDE (__fini_array_end, .)
 *(.jcr*)
                0x200000f0                . = ALIGN (0x4)
                0x200000f0                __data_end__ = .
                0x200000f0                _edata = __data_end__

.igot.plt       0x200000f0        0x0 load address 0x08002e84
 .igot.plt      0x00000000        0x0 ..\obj\usb_core.o

.bss            0x200000f0       0xe8 load address 0x08002e84
                0x200000f0                . = ALIGN (0x4)
                0x200000f0                __bss_start__ = .
                0x200000f0                _sbss = __bss_start__
 *(.bss*)
 .bss           0x200000f0        0x1 ..\obj\usb_core.o
                0x200000f0                Data_Mul_MaxPacketSize
 .bss           0x200000f1        0x1 ..\obj\usb_prop.o
                0x200000f1                Request
 *fill*         0x200000f2        0x2 
 .bss           0x200000f4        0x4 ..\obj\usb_pwr.o
                0x200000f4                bDeviceState
 .bss           0x200000f8        0x5 ..\obj\main.o
                0x200000f8                delay
                0x200000fc                USBmode
 *fill*         0x200000fd        0x3 
 .bss           0x20000100        0xc ..\obj\usb_istr.o
                0x20000100                bIntPackSOF
                0x20000104                esof_counter
                0x20000108                wCNTR
 *(COMMON)
 COMMON         0x2000010c        0x2 ..\obj\usb_core.o
                0x2000010c                StatusInfo
 COMMON         0x2000010e        0x4 ..\obj\usb_int.o
                0x2000010e                SaveRState
                0x20000110                SaveTState
 *fill*         0x20000112        0x2 
 COMMON         0x20000114       0x45 ..\obj\usb_prop.o
                0x20000114                ProtocolValue
                0x20000118                Report_Buf
                0x20000158                EXTI_Enable
 *fill*         0x20000159        0x3 
 COMMON         0x2000015c        0x2 ..\obj\usb_pwr.o
                0x2000015c                ResumeS
 *fill*         0x2000015e        0x2 
 COMMON         0x20000160       0x32 ..\obj\usb_init.o
                0x20000160                SaveState
                0x20000164                pProperty
                0x20000168                EPindex
                0x2000016c                Device_Info
                0x20000188                pUser_Standard_Requests
                0x2000018c                pInformation
                0x20000190                wInterrupt_Mask
 *fill*         0x20000192        0x2 
 COMMON         0x20000194       0x40 ..\obj\usb_endp.o
                0x20000194                Receive_Buffer
 COMMON         0x200001d4        0x2 ..\obj\usb_istr.o
                0x200001d4                wIstr
                0x200001d8                . = ALIGN (0x4)
 *fill*         0x200001d6        0x2 
                0x200001d8                __bss_end__ = .
                0x200001d8                _ebss = __bss_end__

.heap           0x200001d8        0x0
                0x200001d8                __end__ = .
                0x200001d8                _end = __end__
                0x200001d8                end = __end__
 *(.heap*)
                0x200001d8                __HeapLimit = .

.co_stack       0x200001d8      0x400 load address 0x08002f6c
                0x200001d8                . = ALIGN (0x8)
 *(.co_stack .co_stack.*)
 .co_stack      0x200001d8      0x400 ..\obj\startup_stm32f10x_hd.o
                0x200001d8                pulStack
                0x2000c000                __StackTop = (ORIGIN (ram) + 0xc000)
                0x2000bc00                __StackLimit = (__StackTop - SIZEOF (.co_stack))
                0x2000c000                PROVIDE (__stack, __StackTop)
                0x00000001                ASSERT ((__StackLimit >= __HeapLimit), region ram  overflowed with stack)
LOAD ..\obj\usb_core.o
LOAD ..\obj\stm32f10x_tim.o
LOAD ..\obj\usb_int.o
LOAD ..\obj\system_stm32f10x.o
LOAD ..\obj\startup_stm32f10x_hd.o
LOAD ..\obj\usb_desc.o
LOAD ..\obj\usb_regs.o
LOAD ..\obj\stm32f10x_pwr.o
LOAD ..\obj\hw_config.o
LOAD ..\obj\stm32f10x_gpio.o
LOAD ..\obj\usb_prop.o
LOAD ..\obj\usb_pwr.o
LOAD ..\obj\usb_init.o
LOAD ..\obj\main.o
LOAD ..\obj\stm32f10x_rcc.o
LOAD ..\obj\stm32f10x_exti.o
LOAD ..\obj\usb_sil.o
LOAD ..\obj\stm32f10x_flash.o
LOAD ..\obj\stm32f10x_it.o
LOAD ..\obj\usb_endp.o
LOAD ..\obj\misc.o
LOAD ..\obj\usb_mem.o
LOAD ..\obj\usb_istr.o
START GROUP
LOAD c:/program files/gnu tools arm embedded/4.9 2015q3/bin/../lib/gcc/arm-none-eabi/4.9.3/armv7-m\libgcc.a
LOAD c:/program files/gnu tools arm embedded/4.9 2015q3/bin/../lib/gcc/arm-none-eabi/4.9.3/../../../../arm-none-eabi/lib/armv7-m\libg.a
LOAD c:/program files/gnu tools arm embedded/4.9 2015q3/bin/../lib/gcc/arm-none-eabi/4.9.3/../../../../arm-none-eabi/lib/armv7-m\libc.a
END GROUP
OUTPUT(VCP.elf elf32-littlearm)

.debug_info     0x00000000     0x7afe
 .debug_info    0x00000000      0xb5d ..\obj\usb_core.o
 .debug_info    0x00000b5d     0x1c58 ..\obj\stm32f10x_tim.o
 .debug_info    0x000027b5      0x1f3 ..\obj\usb_int.o
 .debug_info    0x000029a8      0x479 ..\obj\system_stm32f10x.o
 .debug_info    0x00002e21       0xe9 ..\obj\startup_stm32f10x_hd.o
 .debug_info    0x00002f0a      0x1a9 ..\obj\usb_desc.o
 .debug_info    0x000030b3      0xca5 ..\obj\usb_regs.o
 .debug_info    0x00003d58      0xa97 ..\obj\hw_config.o
 .debug_info    0x000047ef      0x98f ..\obj\usb_prop.o
 .debug_info    0x0000517e      0x2e1 ..\obj\usb_pwr.o
 .debug_info    0x0000545f      0x450 ..\obj\usb_init.o
 .debug_info    0x000058af      0x3fe ..\obj\main.o
 .debug_info    0x00005cad      0x88d ..\obj\stm32f10x_rcc.o
 .debug_info    0x0000653a      0x186 ..\obj\usb_sil.o
 .debug_info    0x000066c0      0x7b1 ..\obj\stm32f10x_flash.o
 .debug_info    0x00006e71      0x140 ..\obj\stm32f10x_it.o
 .debug_info    0x00006fb1       0xef ..\obj\usb_endp.o
 .debug_info    0x000070a0      0x53d ..\obj\misc.o
 .debug_info    0x000075dd      0x1d2 ..\obj\usb_mem.o
 .debug_info    0x000077af      0x34f ..\obj\usb_istr.o

.debug_abbrev   0x00000000     0x1956
 .debug_abbrev  0x00000000      0x290 ..\obj\usb_core.o
 .debug_abbrev  0x00000290      0x1b0 ..\obj\stm32f10x_tim.o
 .debug_abbrev  0x00000440       0xce ..\obj\usb_int.o
 .debug_abbrev  0x0000050e      0x14c ..\obj\system_stm32f10x.o
 .debug_abbrev  0x0000065a       0xa7 ..\obj\startup_stm32f10x_hd.o
 .debug_abbrev  0x00000701       0x73 ..\obj\usb_desc.o
 .debug_abbrev  0x00000774      0x16d ..\obj\usb_regs.o
 .debug_abbrev  0x000008e1      0x2bc ..\obj\hw_config.o
 .debug_abbrev  0x00000b9d      0x215 ..\obj\usb_prop.o
 .debug_abbrev  0x00000db2      0x12b ..\obj\usb_pwr.o
 .debug_abbrev  0x00000edd      0x11e ..\obj\usb_init.o
 .debug_abbrev  0x00000ffb      0x146 ..\obj\main.o
 .debug_abbrev  0x00001141      0x1ba ..\obj\stm32f10x_rcc.o
 .debug_abbrev  0x000012fb       0xbb ..\obj\usb_sil.o
 .debug_abbrev  0x000013b6      0x18b ..\obj\stm32f10x_flash.o
 .debug_abbrev  0x00001541       0x7d ..\obj\stm32f10x_it.o
 .debug_abbrev  0x000015be       0xa0 ..\obj\usb_endp.o
 .debug_abbrev  0x0000165e      0x145 ..\obj\misc.o
 .debug_abbrev  0x000017a3       0x9d ..\obj\usb_mem.o
 .debug_abbrev  0x00001840      0x116 ..\obj\usb_istr.o

.debug_aranges  0x00000000      0xb40
 .debug_aranges
                0x00000000       0xb0 ..\obj\usb_core.o
 .debug_aranges
                0x000000b0      0x2f0 ..\obj\stm32f10x_tim.o
 .debug_aranges
                0x000003a0       0x28 ..\obj\usb_int.o
 .debug_aranges
                0x000003c8       0x38 ..\obj\system_stm32f10x.o
 .debug_aranges
                0x00000400       0x28 ..\obj\startup_stm32f10x_hd.o
 .debug_aranges
                0x00000428       0x18 ..\obj\usb_desc.o
 .debug_aranges
                0x00000440      0x1f0 ..\obj\usb_regs.o
 .debug_aranges
                0x00000630       0x80 ..\obj\hw_config.o
 .debug_aranges
                0x000006b0       0xa0 ..\obj\usb_prop.o
 .debug_aranges
                0x00000750       0x40 ..\obj\usb_pwr.o
 .debug_aranges
                0x00000790       0x20 ..\obj\usb_init.o
 .debug_aranges
                0x000007b0       0x38 ..\obj\main.o
 .debug_aranges
                0x000007e8      0x118 ..\obj\stm32f10x_rcc.o
 .debug_aranges
                0x00000900       0x30 ..\obj\usb_sil.o
 .debug_aranges
                0x00000930       0xf8 ..\obj\stm32f10x_flash.o
 .debug_aranges
                0x00000a28       0x68 ..\obj\stm32f10x_it.o
 .debug_aranges
                0x00000a90       0x28 ..\obj\usb_endp.o
 .debug_aranges
                0x00000ab8       0x40 ..\obj\misc.o
 .debug_aranges
                0x00000af8       0x28 ..\obj\usb_mem.o
 .debug_aranges
                0x00000b20       0x20 ..\obj\usb_istr.o

.debug_ranges   0x00000000      0xa10
 .debug_ranges  0x00000000       0xb8 ..\obj\usb_core.o
 .debug_ranges  0x000000b8      0x2e0 ..\obj\stm32f10x_tim.o
 .debug_ranges  0x00000398       0x18 ..\obj\usb_int.o
 .debug_ranges  0x000003b0       0x28 ..\obj\system_stm32f10x.o
 .debug_ranges  0x000003d8       0x18 ..\obj\startup_stm32f10x_hd.o
 .debug_ranges  0x000003f0      0x1e0 ..\obj\usb_regs.o
 .debug_ranges  0x000005d0       0x70 ..\obj\hw_config.o
 .debug_ranges  0x00000640       0x90 ..\obj\usb_prop.o
 .debug_ranges  0x000006d0       0x30 ..\obj\usb_pwr.o
 .debug_ranges  0x00000700       0x10 ..\obj\usb_init.o
 .debug_ranges  0x00000710       0x28 ..\obj\main.o
 .debug_ranges  0x00000738      0x108 ..\obj\stm32f10x_rcc.o
 .debug_ranges  0x00000840       0x20 ..\obj\usb_sil.o
 .debug_ranges  0x00000860       0xe8 ..\obj\stm32f10x_flash.o
 .debug_ranges  0x00000948       0x58 ..\obj\stm32f10x_it.o
 .debug_ranges  0x000009a0       0x18 ..\obj\usb_endp.o
 .debug_ranges  0x000009b8       0x30 ..\obj\misc.o
 .debug_ranges  0x000009e8       0x18 ..\obj\usb_mem.o
 .debug_ranges  0x00000a00       0x10 ..\obj\usb_istr.o

.debug_line     0x00000000     0x40d7
 .debug_line    0x00000000      0x507 ..\obj\usb_core.o
 .debug_line    0x00000507      0xac4 ..\obj\stm32f10x_tim.o
 .debug_line    0x00000fcb      0x2a8 ..\obj\usb_int.o
 .debug_line    0x00001273      0x20a ..\obj\system_stm32f10x.o
 .debug_line    0x0000147d       0x9f ..\obj\startup_stm32f10x_hd.o
 .debug_line    0x0000151c      0x15d ..\obj\usb_desc.o
 .debug_line    0x00001679      0x73b ..\obj\usb_regs.o
 .debug_line    0x00001db4      0x3e8 ..\obj\hw_config.o
 .debug_line    0x0000219c      0x3a6 ..\obj\usb_prop.o
 .debug_line    0x00002542      0x2a2 ..\obj\usb_pwr.o
 .debug_line    0x000027e4      0x1c5 ..\obj\usb_init.o
 .debug_line    0x000029a9      0x22c ..\obj\main.o
 .debug_line    0x00002bd5      0x4a9 ..\obj\stm32f10x_rcc.o
 .debug_line    0x0000307e      0x1f2 ..\obj\usb_sil.o
 .debug_line    0x00003270      0x4b7 ..\obj\stm32f10x_flash.o
 .debug_line    0x00003727      0x1ff ..\obj\stm32f10x_it.o
 .debug_line    0x00003926      0x182 ..\obj\usb_endp.o
 .debug_line    0x00003aa8      0x22a ..\obj\misc.o
 .debug_line    0x00003cd2      0x1ca ..\obj\usb_mem.o
 .debug_line    0x00003e9c      0x23b ..\obj\usb_istr.o

.debug_str      0x00000000     0x3353
 .debug_str     0x00000000      0x8f4 ..\obj\usb_core.o
                                0xa7c (size before relaxing)
 .debug_str     0x000008f4      0xc05 ..\obj\stm32f10x_tim.o
                                0xded (size before relaxing)
 .debug_str     0x000014f9       0x83 ..\obj\usb_int.o
                                0x20f (size before relaxing)
 .debug_str     0x0000157c      0x16f ..\obj\system_stm32f10x.o
                                0x2ff (size before relaxing)
 .debug_str     0x000016eb       0xad ..\obj\startup_stm32f10x_hd.o
                                0x14f (size before relaxing)
 .debug_str     0x00001798       0xd3 ..\obj\usb_desc.o
                                0x218 (size before relaxing)
 .debug_str     0x0000186b      0x40f ..\obj\usb_regs.o
                                0x598 (size before relaxing)
 .debug_str     0x00001c7a      0x67c ..\obj\hw_config.o
                                0x9ec (size before relaxing)
 .debug_str     0x000022f6      0x293 ..\obj\usb_prop.o
                                0xa34 (size before relaxing)
 .debug_str     0x00002589      0x12d ..\obj\usb_pwr.o
                                0x36d (size before relaxing)
 .debug_str     0x000026b6       0x5f ..\obj\usb_init.o
                                0x550 (size before relaxing)
 .debug_str     0x00002715       0x6d ..\obj\main.o
                                0x385 (size before relaxing)
 .debug_str     0x00002782      0x3d2 ..\obj\stm32f10x_rcc.o
                                0x62a (size before relaxing)
 .debug_str     0x00002b54       0xa1 ..\obj\usb_sil.o
                                0x21e (size before relaxing)
 .debug_str     0x00002bf5      0x404 ..\obj\stm32f10x_flash.o
                                0x5f8 (size before relaxing)
 .debug_str     0x00002ff9       0xe1 ..\obj\stm32f10x_it.o
                                0x214 (size before relaxing)
 .debug_str     0x000030da       0x78 ..\obj\usb_endp.o
                                0x1bd (size before relaxing)
 .debug_str     0x00003152       0xf4 ..\obj\misc.o
                                0x3ce (size before relaxing)
 .debug_str     0x00003246       0xa3 ..\obj\usb_mem.o
                                0x210 (size before relaxing)
 .debug_str     0x000032e9       0x6a ..\obj\usb_istr.o
                                0x3cd (size before relaxing)

.comment        0x00000000       0x70
 .comment       0x00000000       0x70 ..\obj\usb_core.o
                                 0x71 (size before relaxing)
 .comment       0x00000000       0x71 ..\obj\stm32f10x_tim.o
 .comment       0x00000000       0x71 ..\obj\usb_int.o
 .comment       0x00000000       0x71 ..\obj\system_stm32f10x.o
 .comment       0x00000000       0x71 ..\obj\startup_stm32f10x_hd.o
 .comment       0x00000000       0x71 ..\obj\usb_desc.o
 .comment       0x00000000       0x71 ..\obj\usb_regs.o
 .comment       0x00000000       0x71 ..\obj\hw_config.o
 .comment       0x00000000       0x71 ..\obj\usb_prop.o
 .comment       0x00000000       0x71 ..\obj\usb_pwr.o
 .comment       0x00000000       0x71 ..\obj\usb_init.o
 .comment       0x00000000       0x71 ..\obj\main.o
 .comment       0x00000000       0x71 ..\obj\stm32f10x_rcc.o
 .comment       0x00000000       0x71 ..\obj\usb_sil.o
 .comment       0x00000000       0x71 ..\obj\stm32f10x_flash.o
 .comment       0x00000000       0x71 ..\obj\stm32f10x_it.o
 .comment       0x00000000       0x71 ..\obj\usb_endp.o
 .comment       0x00000000       0x71 ..\obj\misc.o
 .comment       0x00000000       0x71 ..\obj\usb_mem.o
 .comment       0x00000000       0x71 ..\obj\usb_istr.o

.ARM.attributes
                0x00000000       0x33
 .ARM.attributes
                0x00000000       0x33 ..\obj\usb_core.o
 .ARM.attributes
                0x00000033       0x33 ..\obj\stm32f10x_tim.o
 .ARM.attributes
                0x00000066       0x33 ..\obj\usb_int.o
 .ARM.attributes
                0x00000099       0x33 ..\obj\system_stm32f10x.o
 .ARM.attributes
                0x000000cc       0x33 ..\obj\startup_stm32f10x_hd.o
 .ARM.attributes
                0x000000ff       0x33 ..\obj\usb_desc.o
 .ARM.attributes
                0x00000132       0x33 ..\obj\usb_regs.o
 .ARM.attributes
                0x00000165       0x33 ..\obj\hw_config.o
 .ARM.attributes
                0x00000198       0x33 ..\obj\usb_prop.o
 .ARM.attributes
                0x000001cb       0x33 ..\obj\usb_pwr.o
 .ARM.attributes
                0x000001fe       0x33 ..\obj\usb_init.o
 .ARM.attributes
                0x00000231       0x33 ..\obj\main.o
 .ARM.attributes
                0x00000264       0x33 ..\obj\stm32f10x_rcc.o
 .ARM.attributes
                0x00000297       0x33 ..\obj\usb_sil.o
 .ARM.attributes
                0x000002ca       0x33 ..\obj\stm32f10x_flash.o
 .ARM.attributes
                0x000002fd       0x33 ..\obj\stm32f10x_it.o
 .ARM.attributes
                0x00000330       0x33 ..\obj\usb_endp.o
 .ARM.attributes
                0x00000363       0x33 ..\obj\misc.o
 .ARM.attributes
                0x00000396       0x33 ..\obj\usb_mem.o
 .ARM.attributes
                0x000003c9       0x33 ..\obj\usb_istr.o

.debug_frame    0x00000000     0x2d68
 .debug_frame   0x00000000      0x2b8 ..\obj\usb_core.o
 .debug_frame   0x000002b8      0xe2c ..\obj\stm32f10x_tim.o
 .debug_frame   0x000010e4       0x5c ..\obj\usb_int.o
 .debug_frame   0x00001140       0x98 ..\obj\system_stm32f10x.o
 .debug_frame   0x000011d8       0x4c ..\obj\startup_stm32f10x_hd.o
 .debug_frame   0x00001224      0x91c ..\obj\usb_regs.o
 .debug_frame   0x00001b40      0x1e4 ..\obj\hw_config.o
 .debug_frame   0x00001d24      0x26c ..\obj\usb_prop.o
 .debug_frame   0x00001f90       0xbc ..\obj\usb_pwr.o
 .debug_frame   0x0000204c       0x2c ..\obj\usb_init.o
 .debug_frame   0x00002078       0x90 ..\obj\main.o
 .debug_frame   0x00002108      0x4f4 ..\obj\stm32f10x_rcc.o
 .debug_frame   0x000025fc       0x78 ..\obj\usb_sil.o
 .debug_frame   0x00002674      0x410 ..\obj\stm32f10x_flash.o
 .debug_frame   0x00002a84      0x12c ..\obj\stm32f10x_it.o
 .debug_frame   0x00002bb0       0x4c ..\obj\usb_endp.o
 .debug_frame   0x00002bfc       0xd8 ..\obj\misc.o
 .debug_frame   0x00002cd4       0x60 ..\obj\usb_mem.o
 .debug_frame   0x00002d34       0x34 ..\obj\usb_istr.o
